; Function Attrs: uwtable
define void @_ZThn16_N15EditAlignPlugin14mouseMoveEventEP11QMouseEventR9MeshModelP6GLArea(ptr noundef %0, ptr nocapture noundef readonly %1, ptr nocapture noundef nonnull readnone align 8 dereferenceable(1288) %2, ptr nocapture noundef readnone %3) unnamed_addr #12 align 2 {
  %5 = getelementptr inbounds i8, ptr %0, i64 32
  %6 = load i32, ptr %5, align 8
  %7 = icmp eq i32 %6, 3
  br i1 %7, label %8, label %_ZN15EditAlignPlugin14mouseMoveEventEP11QMouseEventR9MeshModelP6GLArea.exit

8:                                                ; preds = %4
  %9 = getelementptr inbounds i8, ptr %0, i64 48
  %10 = getelementptr inbounds i8, ptr %1, i64 32
  %11 = load double, ptr %10, align 8
  %12 = fcmp ult double %11, 0.000000e+00
  br i1 %12, label %16, label %13

13:                                               ; preds = %8
  %14 = fadd double %11, 5.000000e-01
  %15 = fptosi double %14 to i32
  br label %_ZNK11QMouseEvent1xEv.exit.i

16:                                               ; preds = %8
  %17 = fadd double %11, -1.000000e+00
  %18 = fptosi double %17 to i32
  %19 = sitofp i32 %18 to double
  %20 = fsub double %11, %19
  %21 = fadd double %20, 5.000000e-01
  %22 = fptosi double %21 to i32
  %23 = add nsw i32 %22, %18
  br label %_ZNK11QMouseEvent1xEv.exit.i

_ZNK11QMouseEvent1xEv.exit.i:                     ; preds = %16, %13
  %24 = phi i32 [ %15, %13 ], [ %23, %16 ]
  %25 = getelementptr inbounds i8, ptr %0, i64 648
  %26 = load ptr, ptr %25, align 8
  %27 = getelementptr inbounds i8, ptr %26, i64 40
  %28 = load ptr, ptr %27, align 8
  %29 = getelementptr inbounds i8, ptr %28, i64 32
  %30 = load i32, ptr %29, align 4
  %31 = getelementptr inbounds i8, ptr %28, i64 24
  %32 = load i32, ptr %31, align 4
  %33 = getelementptr inbounds i8, ptr %1, i64 40
  %34 = load double, ptr %33, align 8
  %35 = fcmp ult double %34, 0.000000e+00
  br i1 %35, label %39, label %36

36:                                               ; preds = %_ZNK11QMouseEvent1xEv.exit.i
  %37 = fadd double %34, 5.000000e-01
  %38 = fptosi double %37 to i32
  br label %_ZNK11QMouseEvent1yEv.exit.i

39:                                               ; preds = %_ZNK11QMouseEvent1xEv.exit.i
  %40 = fadd double %34, -1.000000e+00
  %41 = fptosi double %40 to i32
  %42 = sitofp i32 %41 to double
  %43 = fsub double %34, %42
  %44 = fadd double %43, 5.000000e-01
  %45 = fptosi double %44 to i32
  %46 = add nsw i32 %45, %41
  br label %_ZNK11QMouseEvent1yEv.exit.i

_ZNK11QMouseEvent1yEv.exit.i:                     ; preds = %39, %36
  %47 = phi i32 [ %38, %36 ], [ %46, %39 ]
  %.neg5 = add i32 %30, 1
  %48 = add i32 %32, %47
  %49 = sub i32 %.neg5, %48
  tail call void @_ZN3vcg9Trackball9MouseMoveEii(ptr noundef nonnull align 8 dereferenceable(597) %9, i32 noundef %24, i32 noundef %49)
  %50 = load ptr, ptr %25, align 8
  tail call void @_ZN7QWidget6updateEv(ptr noundef nonnull align 8 dereferenceable(48) %50)
  br label %_ZN15EditAlignPlugin14mouseMoveEventEP11QMouseEventR9MeshModelP6GLArea.exit

_ZN15EditAlignPlugin14mouseMoveEventEP11QMouseEventR9MeshModelP6GLArea.exit: ; preds = %4, %_ZNK11QMouseEvent1yEv.exit.i
  ret void
}